; ModuleID = '36/839.c'
source_filename = "36/839.c"
target datalayout = "e-m:e-p270:32:32-p271:32:32-p272:64:64-i64:64-f80:128-n8:16:32:64-S128"
target triple = "x86_64-pc-linux-gnu"

@.str = private unnamed_addr constant [5 x i8] c"%s%s\00", align 1
@.str.1 = private unnamed_addr constant [3 x i8] c"NO\00", align 1
@.str.2 = private unnamed_addr constant [4 x i8] c"YES\00", align 1

; Function Attrs: noinline nounwind uwtable
define dso_local i32 @main() #0 {
  %1 = alloca i32, align 4
  %2 = alloca [100 x i8], align 16
  %3 = alloca [100 x i8], align 16
  %4 = alloca i8, align 1
  %5 = alloca i32, align 4
  %6 = alloca i32, align 4
  %7 = alloca i32, align 4
  %8 = alloca i32, align 4
  %9 = alloca i32, align 4
  store i32 0, i32* %1, align 4
  %10 = getelementptr inbounds [100 x i8], [100 x i8]* %2, i64 0, i64 0
  %11 = getelementptr inbounds [100 x i8], [100 x i8]* %3, i64 0, i64 0
  %12 = call i32 (i8*, ...) @__isoc99_scanf(i8* getelementptr inbounds ([5 x i8], [5 x i8]* @.str, i64 0, i64 0), i8* %10, i8* %11)
  %13 = getelementptr inbounds [100 x i8], [100 x i8]* %2, i64 0, i64 0
  %14 = call i64 @strlen(i8* %13) #3
  %15 = trunc i64 %14 to i32
  store i32 %15, i32* %7, align 4
  %16 = getelementptr inbounds [100 x i8], [100 x i8]* %3, i64 0, i64 0
  %17 = call i64 @strlen(i8* %16) #3
  %18 = trunc i64 %17 to i32
  store i32 %18, i32* %8, align 4
  %19 = load i32, i32* %7, align 4
  %20 = load i32, i32* %8, align 4
  %21 = icmp eq i32 %19, %20
  br i1 %21, label %22, label %149

22:                                               ; preds = %0
  store i32 1, i32* %6, align 4
  br label %23

23:                                               ; preds = %70, %22
  %24 = load i32, i32* %6, align 4
  %25 = load i32, i32* %7, align 4
  %26 = icmp sle i32 %24, %25
  br i1 %26, label %27, label %73

27:                                               ; preds = %23
  store i32 0, i32* %5, align 4
  br label %28

28:                                               ; preds = %66, %27
  %29 = load i32, i32* %5, align 4
  %30 = load i32, i32* %7, align 4
  %31 = load i32, i32* %6, align 4
  %32 = sub nsw i32 %30, %31
  %33 = icmp slt i32 %29, %32
  br i1 %33, label %34, label %69

34:                                               ; preds = %28
  %35 = load i32, i32* %5, align 4
  %36 = sext i32 %35 to i64
  %37 = getelementptr inbounds [100 x i8], [100 x i8]* %2, i64 0, i64 %36
  %38 = load i8, i8* %37, align 1
  %39 = sext i8 %38 to i32
  %40 = load i32, i32* %5, align 4
  %41 = add nsw i32 %40, 1
  %42 = sext i32 %41 to i64
  %43 = getelementptr inbounds [100 x i8], [100 x i8]* %2, i64 0, i64 %42
  %44 = load i8, i8* %43, align 1
  %45 = sext i8 %44 to i32
  %46 = icmp sgt i32 %39, %45
  br i1 %46, label %47, label %65

47:                                               ; preds = %34
  %48 = load i32, i32* %5, align 4
  %49 = sext i32 %48 to i64
  %50 = getelementptr inbounds [100 x i8], [100 x i8]* %2, i64 0, i64 %49
  %51 = load i8, i8* %50, align 1
  store i8 %51, i8* %4, align 1
  %52 = load i32, i32* %5, align 4
  %53 = add nsw i32 %52, 1
  %54 = sext i32 %53 to i64
  %55 = getelementptr inbounds [100 x i8], [100 x i8]* %2, i64 0, i64 %54
  %56 = load i8, i8* %55, align 1
  %57 = load i32, i32* %5, align 4
  %58 = sext i32 %57 to i64
  %59 = getelementptr inbounds [100 x i8], [100 x i8]* %2, i64 0, i64 %58
  store i8 %56, i8* %59, align 1
  %60 = load i8, i8* %4, align 1
  %61 = load i32, i32* %5, align 4
  %62 = add nsw i32 %61, 1
  %63 = sext i32 %62 to i64
  %64 = getelementptr inbounds [100 x i8], [100 x i8]* %2, i64 0, i64 %63
  store i8 %60, i8* %64, align 1
  br label %65

65:                                               ; preds = %47, %34
  br label %66

66:                                               ; preds = %65
  %67 = load i32, i32* %5, align 4
  %68 = add nsw i32 %67, 1
  store i32 %68, i32* %5, align 4
  br label %28

69:                                               ; preds = %28
  br label %70

70:                                               ; preds = %69
  %71 = load i32, i32* %6, align 4
  %72 = add nsw i32 %71, 1
  store i32 %72, i32* %6, align 4
  br label %23

73:                                               ; preds = %23
  store i32 1, i32* %6, align 4
  br label %74

74:                                               ; preds = %121, %73
  %75 = load i32, i32* %6, align 4
  %76 = load i32, i32* %8, align 4
  %77 = icmp sle i32 %75, %76
  br i1 %77, label %78, label %124

78:                                               ; preds = %74
  store i32 0, i32* %5, align 4
  br label %79

79:                                               ; preds = %117, %78
  %80 = load i32, i32* %5, align 4
  %81 = load i32, i32* %8, align 4
  %82 = load i32, i32* %6, align 4
  %83 = sub nsw i32 %81, %82
  %84 = icmp slt i32 %80, %83
  br i1 %84, label %85, label %120

85:                                               ; preds = %79
  %86 = load i32, i32* %5, align 4
  %87 = sext i32 %86 to i64
  %88 = getelementptr inbounds [100 x i8], [100 x i8]* %3, i64 0, i64 %87
  %89 = load i8, i8* %88, align 1
  %90 = sext i8 %89 to i32
  %91 = load i32, i32* %5, align 4
  %92 = add nsw i32 %91, 1
  %93 = sext i32 %92 to i64
  %94 = getelementptr inbounds [100 x i8], [100 x i8]* %3, i64 0, i64 %93
  %95 = load i8, i8* %94, align 1
  %96 = sext i8 %95 to i32
  %97 = icmp sgt i32 %90, %96
  br i1 %97, label %98, label %116

98:                                               ; preds = %85
  %99 = load i32, i32* %5, align 4
  %100 = sext i32 %99 to i64
  %101 = getelementptr inbounds [100 x i8], [100 x i8]* %3, i64 0, i64 %100
  %102 = load i8, i8* %101, align 1
  store i8 %102, i8* %4, align 1
  %103 = load i32, i32* %5, align 4
  %104 = add nsw i32 %103, 1
  %105 = sext i32 %104 to i64
  %106 = getelementptr inbounds [100 x i8], [100 x i8]* %3, i64 0, i64 %105
  %107 = load i8, i8* %106, align 1
  %108 = load i32, i32* %5, align 4
  %109 = sext i32 %108 to i64
  %110 = getelementptr inbounds [100 x i8], [100 x i8]* %3, i64 0, i64 %109
  store i8 %107, i8* %110, align 1
  %111 = load i8, i8* %4, align 1
  %112 = load i32, i32* %5, align 4
  %113 = add nsw i32 %112, 1
  %114 = sext i32 %113 to i64
  %115 = getelementptr inbounds [100 x i8], [100 x i8]* %3, i64 0, i64 %114
  store i8 %111, i8* %115, align 1
  br label %116

116:                                              ; preds = %98, %85
  br label %117

117:                                              ; preds = %116
  %118 = load i32, i32* %5, align 4
  %119 = add nsw i32 %118, 1
  store i32 %119, i32* %5, align 4
  br label %79

120:                                              ; preds = %79
  br label %121

121:                                              ; preds = %120
  %122 = load i32, i32* %6, align 4
  %123 = add nsw i32 %122, 1
  store i32 %123, i32* %6, align 4
  br label %74

124:                                              ; preds = %74
  store i32 0, i32* %9, align 4
  store i32 0, i32* %5, align 4
  br label %125

125:                                              ; preds = %145, %124
  %126 = load i32, i32* %5, align 4
  %127 = load i32, i32* %7, align 4
  %128 = icmp slt i32 %126, %127
  br i1 %128, label %129, label %148

129:                                              ; preds = %125
  %130 = load i32, i32* %5, align 4
  %131 = sext i32 %130 to i64
  %132 = getelementptr inbounds [100 x i8], [100 x i8]* %2, i64 0, i64 %131
  %133 = load i8, i8* %132, align 1
  %134 = sext i8 %133 to i32
  %135 = sub nsw i32 %134, 48
  %136 = load i32, i32* %5, align 4
  %137 = sext i32 %136 to i64
  %138 = getelementptr inbounds [100 x i8], [100 x i8]* %3, i64 0, i64 %137
  %139 = load i8, i8* %138, align 1
  %140 = sext i8 %139 to i32
  %141 = sub nsw i32 %140, 48
  %142 = icmp ne i32 %135, %141
  br i1 %142, label %143, label %144

143:                                              ; preds = %129
  store i32 1, i32* %9, align 4
  br label %144

144:                                              ; preds = %143, %129
  br label %145

145:                                              ; preds = %144
  %146 = load i32, i32* %5, align 4
  %147 = add nsw i32 %146, 1
  store i32 %147, i32* %5, align 4
  br label %125

148:                                              ; preds = %125
  br label %149

149:                                              ; preds = %148, %0
  %150 = load i32, i32* %7, align 4
  %151 = load i32, i32* %8, align 4
  %152 = icmp ne i32 %150, %151
  br i1 %152, label %156, label %153

153:                                              ; preds = %149
  %154 = load i32, i32* %9, align 4
  %155 = icmp eq i32 %154, 1
  br i1 %155, label %156, label %158

156:                                              ; preds = %153, %149
  %157 = call i32 (i8*, ...) @printf(i8* getelementptr inbounds ([3 x i8], [3 x i8]* @.str.1, i64 0, i64 0))
  br label %160

158:                                              ; preds = %153
  %159 = call i32 (i8*, ...) @printf(i8* getelementptr inbounds ([4 x i8], [4 x i8]* @.str.2, i64 0, i64 0))
  br label %160

160:                                              ; preds = %158, %156
  %161 = load i32, i32* %1, align 4
  ret i32 %161
}

declare dso_local i32 @__isoc99_scanf(i8*, ...) #1

; Function Attrs: nounwind readonly
declare dso_local i64 @strlen(i8*) #2

declare dso_local i32 @printf(i8*, ...) #1


!llvm.module.flags = !{!0}
!llvm.ident = !{!1}

!0 = !{i32 1, !"wchar_size", i32 4}
!1 = !{!"clang version 10.0.0-4ubuntu1 "}
